; Function Attrs: nounwind uwtable
define hidden i32 @ir_proto_5(ptr noundef %0, i8 noundef zeroext %1, i32 noundef %2, i32 noundef %3, i32 noundef %4, i32 noundef %5, i32 noundef %6, i32 noundef %7) local_unnamed_addr #0 {
  %9 = alloca %struct._ir_proto_t, align 1
  store i8 %1, ptr %9, align 1
  %10 = trunc i32 %2 to i8
  %11 = getelementptr inbounds i8, ptr %9, i64 1
  store i8 %10, ptr %11, align 1
  %12 = getelementptr inbounds i8, ptr %9, i64 2
  store i8 5, ptr %12, align 1
  %13 = trunc i32 %3 to i8
  %14 = getelementptr inbounds i8, ptr %9, i64 3
  store i8 %13, ptr %14, align 1
  %15 = trunc i32 %4 to i8
  %16 = getelementptr inbounds i8, ptr %9, i64 4
  store i8 %15, ptr %16, align 1
  %17 = trunc i32 %5 to i8
  %18 = getelementptr inbounds i8, ptr %9, i64 5
  store i8 %17, ptr %18, align 1
  %19 = trunc i32 %6 to i8
  %20 = getelementptr inbounds i8, ptr %9, i64 6
  store i8 %19, ptr %20, align 1
  %21 = trunc i32 %7 to i8
  %22 = getelementptr inbounds i8, ptr %9, i64 7
  store i8 %21, ptr %22, align 1
  %23 = getelementptr inbounds i8, ptr %0, i64 336
  %24 = load ptr, ptr %23, align 8
  %.not.i = icmp eq ptr %24, null
  br i1 %.not.i, label %25, label %ir_strl.exit

25:                                               ; preds = %8
  tail call void @ir_strtab_init(ptr noundef nonnull %23, i32 noundef 64, i32 noundef 4096) #20
  br label %ir_strl.exit

ir_strl.exit:                                     ; preds = %8, %25
  %26 = getelementptr inbounds i8, ptr %0, i64 352
  %27 = load i32, ptr %26, align 8
  %28 = add i32 %27, 1
  %29 = call i32 @ir_strtab_lookup(ptr noundef nonnull %23, ptr noundef nonnull %9, i32 noundef 8, i32 noundef %28) #20
  ret i32 %29
}